target datalayout = "e-m:e-p270:32:32-p271:32:32-p272:64:64-i64:64-i128:128-f80:128-n8:16:32:64-S128"
target triple = "x86_64-pc-linux-gnu"

%struct.DdManager = type { %struct.DdNode, ptr, ptr, ptr, ptr, ptr, ptr, ptr, i32, i32, double, double, double, i32, i32, i32, i32, i32, i32, ptr, ptr, %struct.DdSubtable, i32, i32, i32, i32, i32, i32, i32, double, i32, i32, i32, ptr, i64, double, i32, ptr, ptr, ptr, ptr, ptr, ptr, ptr, i32, ptr, ptr, ptr, ptr, ptr, ptr, i32, i32, i32, double, i32, i32, i32, i32, double, double, i32, i32, i32, i32, i32, i32, i32, i32, i32, ptr, ptr, i32, i32, i32, i32, i32, i32, ptr, ptr, ptr, ptr, ptr, ptr, ptr, ptr, i32, i64, i64, i64, i32, i64, i64, double, double, double, double, double, double, i32, ptr, ptr, i64 }
%struct.DdNode = type { i32, i32, ptr, %union.anon, i64 }
%union.anon = type { %struct.DdChildren }
%struct.DdChildren = type { ptr, ptr }
%struct.DdSubtable = type { ptr, i32, i32, i32, i32, i32, i32, i32, i32, i32, i32, i32 }

; Function Attrs: nounwind uwtable
define ptr @Cudd_RemapUnderApprox(ptr noundef %0, ptr noundef %1, i32 noundef %2, i32 noundef %3, double noundef %4) #0 {
  %6 = alloca ptr, align 8
  %7 = alloca ptr, align 8
  %8 = alloca i32, align 4
  %9 = alloca i32, align 4
  %10 = alloca double, align 8
  %11 = alloca ptr, align 8
  store ptr %0, ptr %6, align 8, !tbaa !3
  store ptr %1, ptr %7, align 8, !tbaa !8
  store i32 %2, ptr %8, align 4, !tbaa !10
  store i32 %3, ptr %9, align 4, !tbaa !10
  store double %4, ptr %10, align 8, !tbaa !12
  call void @llvm.lifetime.start.p0(i64 8, ptr %11) #7
  br label %12

12:                                               ; preds = %21, %5
  %13 = load ptr, ptr %6, align 8, !tbaa !3
  %14 = getelementptr inbounds nuw %struct.DdManager, ptr %13, i32 0, i32 55
  store i32 0, ptr %14, align 8, !tbaa !14
  %15 = load ptr, ptr %6, align 8, !tbaa !3
  %16 = load ptr, ptr %7, align 8, !tbaa !8
  %17 = load i32, ptr %8, align 4, !tbaa !10
  %18 = load i32, ptr %9, align 4, !tbaa !10
  %19 = load double, ptr %10, align 8, !tbaa !12
  %20 = call ptr @cuddRemapUnderApprox(ptr noundef %15, ptr noundef %16, i32 noundef %17, i32 noundef %18, double noundef %19)
  store ptr %20, ptr %11, align 8, !tbaa !8
  br label %21

21:                                               ; preds = %12
  %22 = load ptr, ptr %6, align 8, !tbaa !3
  %23 = getelementptr inbounds nuw %struct.DdManager, ptr %22, i32 0, i32 55
  %24 = load i32, ptr %23, align 8, !tbaa !14
  %25 = icmp eq i32 %24, 1
  br i1 %25, label %12, label %26, !llvm.loop !43

26:                                               ; preds = %21
  %27 = load ptr, ptr %11, align 8, !tbaa !8
  call void @llvm.lifetime.end.p0(i64 8, ptr %11) #7
  ret ptr %27
}