; Function Attrs: nounwind uwtable
define ptr @Cudd_RemapUnderApprox(ptr noundef initializes((448, 452)) %0, ptr noundef %1, i32 noundef %2, i32 noundef %3, double noundef %4) local_unnamed_addr #0 {
  %6 = getelementptr inbounds nuw i8, ptr %0, i64 448
  br label %7

7:                                                ; preds = %7, %5
  store i32 0, ptr %6, align 8, !tbaa !3
  %8 = tail call ptr @cuddRemapUnderApprox(ptr noundef %0, ptr noundef %1, i32 noundef %2, i32 noundef %3, double noundef %4)
  %9 = load i32, ptr %6, align 8, !tbaa !3
  %10 = icmp eq i32 %9, 1
  br i1 %10, label %7, label %11, !llvm.loop !59

11:                                               ; preds = %7
  ret ptr %8
}